target datalayout = "e-m:e-p270:32:32-p271:32:32-p272:64:64-i64:64-i128:128-f80:128-n8:16:32:64-S128"
target triple = "x86_64-unknown-linux-gnu"

%"class.std::basic_string_view" = type { i64, ptr }
%"struct.std::_Rb_tree_key_compare" = type { %"struct.std::less" }
%"struct.std::less" = type { i8 }
%"struct.std::_Rb_tree_header" = type { %"struct.std::_Rb_tree_node_base", i64 }
%"struct.std::_Rb_tree_node_base" = type { i32, ptr, ptr, ptr }
%"class.absl::lts_20230802::Status" = type { i64 }
%"class.grpc_core::RefCountedPtr.219" = type { ptr }
%"struct.grpc_core::BackendMetricData" = type { double, double, double, double, double, %"class.std::map.263", %"class.std::map.263", %"class.std::map.263" }
%"class.std::map.263" = type { %"class.std::_Rb_tree.264" }
%"class.std::_Rb_tree.264" = type { %"struct.std::_Rb_tree<std::basic_string_view<char>, std::pair<const std::basic_string_view<char>, double>, std::_Select1st<std::pair<const std::basic_string_view<char>, double>>, std::less<std::basic_string_view<char>>>::_Rb_tree_impl" }
%"struct.std::_Rb_tree<std::basic_string_view<char>, std::pair<const std::basic_string_view<char>, double>, std::_Select1st<std::pair<const std::basic_string_view<char>, double>>, std::less<std::basic_string_view<char>>>::_Rb_tree_impl" = type { %"struct.std::_Rb_tree_key_compare", %"struct.std::_Rb_tree_header" }
%"class.grpc_core::(anonymous namespace)::OldWeightedRoundRobin::Picker::SubchannelCallTracker" = type <{ %"class.grpc_core::LoadBalancingPolicy::SubchannelCallTrackerInterface", %"class.grpc_core::RefCountedPtr.219", float, [4 x i8] }>
%"class.grpc_core::LoadBalancingPolicy::SubchannelCallTrackerInterface" = type { ptr }
%"struct.grpc_core::LoadBalancingPolicy::SubchannelCallTrackerInterface::FinishArgs" = type { %"class.std::basic_string_view", %"class.absl::lts_20230802::Status", ptr, ptr }

; Function Attrs: mustprogress nounwind uwtable
define internal noundef ptr @_ZNK9grpc_core13RefCountedPtrINS_12_GLOBAL__N_121OldWeightedRoundRobin13AddressWeightEEptEv(ptr noundef nonnull align 8 dereferenceable(8) %this) #5 align 2 {
entry:
  %this.addr = alloca ptr, align 8
  store ptr %this, ptr %this.addr, align 8
  %this1 = load ptr, ptr %this.addr, align 8
  %value_ = getelementptr inbounds %"class.grpc_core::RefCountedPtr.219", ptr %this1, i32 0, i32 0
  %0 = load ptr, ptr %value_, align 8
  ret ptr %0
}

; Function Attrs: mustprogress uwtable
define internal void @_ZN9grpc_core12_GLOBAL__N_121OldWeightedRoundRobin6Picker21SubchannelCallTracker6FinishENS_19LoadBalancingPolicy30SubchannelCallTrackerInterface10FinishArgsE(ptr noundef nonnull align 8 dereferenceable(20) %this, ptr noundef %args) unnamed_addr #4 align 2 {
entry:
  %this.addr = alloca ptr, align 8
  %args.indirect_addr = alloca ptr, align 8
  %backend_metric_data = alloca ptr, align 8
  %qps = alloca double, align 8
  %eps = alloca double, align 8
  %utilization = alloca double, align 8
  store ptr %this, ptr %this.addr, align 8
  store ptr %args, ptr %args.indirect_addr, align 8
  %this1 = load ptr, ptr %this.addr, align 8
  %backend_metric_accessor = getelementptr inbounds %"struct.grpc_core::LoadBalancingPolicy::SubchannelCallTrackerInterface::FinishArgs", ptr %args, i32 0, i32 3
  %0 = load ptr, ptr %backend_metric_accessor, align 8
  %vtable = load ptr, ptr %0, align 8
  %vfn = getelementptr inbounds ptr, ptr %vtable, i64 2
  %1 = load ptr, ptr %vfn, align 8
  %call = call noundef ptr %1(ptr noundef nonnull align 8 dereferenceable(8) %0)
  store ptr %call, ptr %backend_metric_data, align 8
  store double 0.000000e+00, ptr %qps, align 8
  store double 0.000000e+00, ptr %eps, align 8
  store double 0.000000e+00, ptr %utilization, align 8
  %2 = load ptr, ptr %backend_metric_data, align 8
  %cmp = icmp ne ptr %2, null
  br i1 %cmp, label %if.then, label %if.end6

if.then:                                          ; preds = %entry
  %3 = load ptr, ptr %backend_metric_data, align 8
  %qps2 = getelementptr inbounds %"struct.grpc_core::BackendMetricData", ptr %3, i32 0, i32 3
  %4 = load double, ptr %qps2, align 8
  store double %4, ptr %qps, align 8
  %5 = load ptr, ptr %backend_metric_data, align 8
  %eps3 = getelementptr inbounds %"struct.grpc_core::BackendMetricData", ptr %5, i32 0, i32 4
  %6 = load double, ptr %eps3, align 8
  store double %6, ptr %eps, align 8
  %7 = load ptr, ptr %backend_metric_data, align 8
  %application_utilization = getelementptr inbounds %"struct.grpc_core::BackendMetricData", ptr %7, i32 0, i32 2
  %8 = load double, ptr %application_utilization, align 8
  store double %8, ptr %utilization, align 8
  %9 = load double, ptr %utilization, align 8
  %cmp4 = fcmp ole double %9, 0.000000e+00
  br i1 %cmp4, label %if.then5, label %if.end

if.then5:                                         ; preds = %if.then
  %10 = load ptr, ptr %backend_metric_data, align 8
  %cpu_utilization = getelementptr inbounds %"struct.grpc_core::BackendMetricData", ptr %10, i32 0, i32 0
  %11 = load double, ptr %cpu_utilization, align 8
  store double %11, ptr %utilization, align 8
  br label %if.end

if.end:                                           ; preds = %if.then5, %if.then
  br label %if.end6

if.end6:                                          ; preds = %if.end, %entry
  %weight_ = getelementptr inbounds %"class.grpc_core::(anonymous namespace)::OldWeightedRoundRobin::Picker::SubchannelCallTracker", ptr %this1, i32 0, i32 1
  %call7 = call noundef ptr @_ZNK9grpc_core13RefCountedPtrINS_12_GLOBAL__N_121OldWeightedRoundRobin13AddressWeightEEptEv(ptr noundef nonnull align 8 dereferenceable(8) %weight_)
  %12 = load double, ptr %qps, align 8
  %13 = load double, ptr %eps, align 8
  %14 = load double, ptr %utilization, align 8
  %error_utilization_penalty_ = getelementptr inbounds %"class.grpc_core::(anonymous namespace)::OldWeightedRoundRobin::Picker::SubchannelCallTracker", ptr %this1, i32 0, i32 2
  %15 = load float, ptr %error_utilization_penalty_, align 8
  call void @_ZN9grpc_core12_GLOBAL__N_121OldWeightedRoundRobin13AddressWeight17MaybeUpdateWeightEdddf(ptr noundef nonnull align 8 dereferenceable(88) %call7, double noundef %12, double noundef %13, double noundef %14, float noundef %15)
  ret void
}