; Function Attrs: mustprogress uwtable
define internal void @_ZN9grpc_core12_GLOBAL__N_121OldWeightedRoundRobin6Picker21SubchannelCallTracker6FinishENS_19LoadBalancingPolicy30SubchannelCallTrackerInterface10FinishArgsE(ptr nocapture noundef nonnull readonly align 8 dereferenceable(20) %this, ptr nocapture noundef readonly %args) unnamed_addr #3 align 2 {
entry:
  %backend_metric_accessor = getelementptr inbounds i8, ptr %args, i64 32
  %0 = load ptr, ptr %backend_metric_accessor, align 8
  %vtable = load ptr, ptr %0, align 8
  %vfn = getelementptr inbounds i8, ptr %vtable, i64 16
  %1 = load ptr, ptr %vfn, align 8
  %call = tail call noundef ptr %1(ptr noundef nonnull align 8 dereferenceable(8) %0)
  %cmp.not = icmp eq ptr %call, null
  br i1 %cmp.not, label %if.end6, label %if.then

if.then:                                          ; preds = %entry
  %qps2 = getelementptr inbounds i8, ptr %call, i64 24
  %2 = load double, ptr %qps2, align 8
  %eps3 = getelementptr inbounds i8, ptr %call, i64 32
  %3 = load double, ptr %eps3, align 8
  %application_utilization = getelementptr inbounds i8, ptr %call, i64 16
  %4 = load double, ptr %application_utilization, align 8
  %cmp4 = fcmp ugt double %4, 0.000000e+00
  br i1 %cmp4, label %if.end6, label %if.then5

if.then5:                                         ; preds = %if.then
  %5 = load double, ptr %call, align 8
  br label %if.end6

if.end6:                                          ; preds = %if.then, %if.then5, %entry
  %qps.0 = phi double [ %2, %if.then5 ], [ %2, %if.then ], [ 0.000000e+00, %entry ]
  %eps.0 = phi double [ %3, %if.then5 ], [ %3, %if.then ], [ 0.000000e+00, %entry ]
  %utilization.0 = phi double [ %5, %if.then5 ], [ %4, %if.then ], [ 0.000000e+00, %entry ]
  %weight_ = getelementptr inbounds i8, ptr %this, i64 8
  %weight_.val = load ptr, ptr %weight_, align 8
  %error_utilization_penalty_ = getelementptr inbounds i8, ptr %this, i64 16
  %6 = load float, ptr %error_utilization_penalty_, align 8
  tail call fastcc void @_ZN9grpc_core12_GLOBAL__N_121OldWeightedRoundRobin13AddressWeight17MaybeUpdateWeightEdddf(ptr noundef nonnull align 8 dereferenceable(88) %weight_.val, double noundef %qps.0, double noundef %eps.0, double noundef %utilization.0, float noundef %6)
  ret void
}